target datalayout = "e-m:e-p270:32:32-p271:32:32-p272:64:64-i64:64-i128:128-f80:128-n8:16:32:64-S128"
target triple = "x86_64-pc-linux-gnu"

%struct.lua_TValue = type { %union.Value, [1 x i32], i32 }
%union.Value = type { ptr }
%struct.LuaTable = type { i8, i8, i8, i8, i8, i8, i8, i8, i32, %union.anon, ptr, ptr, ptr, ptr }
%union.anon = type { i32 }
%struct.LuaNode = type { %struct.lua_TValue, %struct.TKey }
%struct.TKey = type { %union.Value, [1 x i32], i32 }
%struct.TString = type { i8, i8, i8, i16, ptr, i32, i32, [1 x i8] }

; Function Attrs: mustprogress nounwind uwtable
define internal noundef ptr @_ZL11hashpointerPK8LuaTablePKv(ptr noundef %0, ptr noundef %1) #4 {
  %3 = alloca ptr, align 8
  %4 = alloca ptr, align 8
  %5 = alloca i32, align 4
  store ptr %0, ptr %3, align 8, !tbaa !9
  store ptr %1, ptr %4, align 8, !tbaa !90
  call void @llvm.lifetime.start.p0(i64 4, ptr %5) #7
  %6 = load ptr, ptr %4, align 8, !tbaa !90
  %7 = ptrtoint ptr %6 to i64
  %8 = trunc i64 %7 to i32
  store i32 %8, ptr %5, align 4, !tbaa !13
  %9 = load i32, ptr %5, align 4, !tbaa !13
  %10 = lshr i32 %9, 16
  %11 = load i32, ptr %5, align 4, !tbaa !13
  %12 = xor i32 %11, %10
  store i32 %12, ptr %5, align 4, !tbaa !13
  %13 = load i32, ptr %5, align 4, !tbaa !13
  %14 = mul i32 %13, -2048144789
  store i32 %14, ptr %5, align 4, !tbaa !13
  %15 = load i32, ptr %5, align 4, !tbaa !13
  %16 = lshr i32 %15, 13
  %17 = load i32, ptr %5, align 4, !tbaa !13
  %18 = xor i32 %17, %16
  store i32 %18, ptr %5, align 4, !tbaa !13
  %19 = load i32, ptr %5, align 4, !tbaa !13
  %20 = mul i32 %19, -1028477387
  store i32 %20, ptr %5, align 4, !tbaa !13
  %21 = load i32, ptr %5, align 4, !tbaa !13
  %22 = lshr i32 %21, 16
  %23 = load i32, ptr %5, align 4, !tbaa !13
  %24 = xor i32 %23, %22
  store i32 %24, ptr %5, align 4, !tbaa !13
  %25 = load ptr, ptr %3, align 8, !tbaa !9
  %26 = getelementptr inbounds nuw %struct.LuaTable, ptr %25, i32 0, i32 12
  %27 = load ptr, ptr %26, align 8, !tbaa !27
  %28 = load i32, ptr %5, align 4, !tbaa !13
  %29 = load ptr, ptr %3, align 8, !tbaa !9
  %30 = getelementptr inbounds nuw %struct.LuaTable, ptr %29, i32 0, i32 6
  %31 = load i8, ptr %30, align 2, !tbaa !26
  %32 = zext i8 %31 to i32
  %33 = shl i32 1, %32
  %34 = sub nsw i32 %33, 1
  %35 = and i32 %28, %34
  %36 = sext i32 %35 to i64
  %37 = getelementptr inbounds %struct.LuaNode, ptr %27, i64 %36
  call void @llvm.lifetime.end.p0(i64 4, ptr %5) #7
  ret ptr %37
}

; Function Attrs: mustprogress nounwind uwtable
define internal noundef ptr @_ZL7hashvecPK8LuaTablePKf(ptr noundef %0, ptr noundef %1) #4 {
  %3 = alloca ptr, align 8
  %4 = alloca ptr, align 8
  %5 = alloca [3 x i32], align 4
  %6 = alloca i32, align 4
  store ptr %0, ptr %3, align 8, !tbaa !9
  store ptr %1, ptr %4, align 8, !tbaa !81
  call void @llvm.lifetime.start.p0(i64 12, ptr %5) #7
  %7 = getelementptr inbounds [3 x i32], ptr %5, i64 0, i64 0
  %8 = load ptr, ptr %4, align 8, !tbaa !81
  call void @llvm.memcpy.p0.p0.i64(ptr align 4 %7, ptr align 4 %8, i64 12, i1 false)
  %9 = getelementptr inbounds [3 x i32], ptr %5, i64 0, i64 0
  %10 = load i32, ptr %9, align 4, !tbaa !13
  %11 = icmp eq i32 %10, -2147483648
  br i1 %11, label %12, label %13

12:                                               ; preds = %2
  br label %16

13:                                               ; preds = %2
  %14 = getelementptr inbounds [3 x i32], ptr %5, i64 0, i64 0
  %15 = load i32, ptr %14, align 4, !tbaa !13
  br label %16

16:                                               ; preds = %13, %12
  %17 = phi i32 [ 0, %12 ], [ %15, %13 ]
  %18 = getelementptr inbounds [3 x i32], ptr %5, i64 0, i64 0
  store i32 %17, ptr %18, align 4, !tbaa !13
  %19 = getelementptr inbounds [3 x i32], ptr %5, i64 0, i64 1
  %20 = load i32, ptr %19, align 4, !tbaa !13
  %21 = icmp eq i32 %20, -2147483648
  br i1 %21, label %22, label %23

22:                                               ; preds = %16
  br label %26

23:                                               ; preds = %16
  %24 = getelementptr inbounds [3 x i32], ptr %5, i64 0, i64 1
  %25 = load i32, ptr %24, align 4, !tbaa !13
  br label %26

26:                                               ; preds = %23, %22
  %27 = phi i32 [ 0, %22 ], [ %25, %23 ]
  %28 = getelementptr inbounds [3 x i32], ptr %5, i64 0, i64 1
  store i32 %27, ptr %28, align 4, !tbaa !13
  %29 = getelementptr inbounds [3 x i32], ptr %5, i64 0, i64 2
  %30 = load i32, ptr %29, align 4, !tbaa !13
  %31 = icmp eq i32 %30, -2147483648
  br i1 %31, label %32, label %33

32:                                               ; preds = %26
  br label %36

33:                                               ; preds = %26
  %34 = getelementptr inbounds [3 x i32], ptr %5, i64 0, i64 2
  %35 = load i32, ptr %34, align 4, !tbaa !13
  br label %36

36:                                               ; preds = %33, %32
  %37 = phi i32 [ 0, %32 ], [ %35, %33 ]
  %38 = getelementptr inbounds [3 x i32], ptr %5, i64 0, i64 2
  store i32 %37, ptr %38, align 4, !tbaa !13
  %39 = getelementptr inbounds [3 x i32], ptr %5, i64 0, i64 0
  %40 = load i32, ptr %39, align 4, !tbaa !13
  %41 = lshr i32 %40, 17
  %42 = getelementptr inbounds [3 x i32], ptr %5, i64 0, i64 0
  %43 = load i32, ptr %42, align 4, !tbaa !13
  %44 = xor i32 %43, %41
  store i32 %44, ptr %42, align 4, !tbaa !13
  %45 = getelementptr inbounds [3 x i32], ptr %5, i64 0, i64 1
  %46 = load i32, ptr %45, align 4, !tbaa !13
  %47 = lshr i32 %46, 17
  %48 = getelementptr inbounds [3 x i32], ptr %5, i64 0, i64 1
  %49 = load i32, ptr %48, align 4, !tbaa !13
  %50 = xor i32 %49, %47
  store i32 %50, ptr %48, align 4, !tbaa !13
  %51 = getelementptr inbounds [3 x i32], ptr %5, i64 0, i64 2
  %52 = load i32, ptr %51, align 4, !tbaa !13
  %53 = lshr i32 %52, 17
  %54 = getelementptr inbounds [3 x i32], ptr %5, i64 0, i64 2
  %55 = load i32, ptr %54, align 4, !tbaa !13
  %56 = xor i32 %55, %53
  store i32 %56, ptr %54, align 4, !tbaa !13
  call void @llvm.lifetime.start.p0(i64 4, ptr %6) #7
  %57 = getelementptr inbounds [3 x i32], ptr %5, i64 0, i64 0
  %58 = load i32, ptr %57, align 4, !tbaa !13
  %59 = mul i32 %58, 73856093
  %60 = getelementptr inbounds [3 x i32], ptr %5, i64 0, i64 1
  %61 = load i32, ptr %60, align 4, !tbaa !13
  %62 = mul i32 %61, 19349663
  %63 = xor i32 %59, %62
  %64 = getelementptr inbounds [3 x i32], ptr %5, i64 0, i64 2
  %65 = load i32, ptr %64, align 4, !tbaa !13
  %66 = mul i32 %65, 83492791
  %67 = xor i32 %63, %66
  store i32 %67, ptr %6, align 4, !tbaa !13
  %68 = load ptr, ptr %3, align 8, !tbaa !9
  %69 = getelementptr inbounds nuw %struct.LuaTable, ptr %68, i32 0, i32 12
  %70 = load ptr, ptr %69, align 8, !tbaa !27
  %71 = load i32, ptr %6, align 4, !tbaa !13
  %72 = load ptr, ptr %3, align 8, !tbaa !9
  %73 = getelementptr inbounds nuw %struct.LuaTable, ptr %72, i32 0, i32 6
  %74 = load i8, ptr %73, align 2, !tbaa !26
  %75 = zext i8 %74 to i32
  %76 = shl i32 1, %75
  %77 = sub nsw i32 %76, 1
  %78 = and i32 %71, %77
  %79 = sext i32 %78 to i64
  %80 = getelementptr inbounds %struct.LuaNode, ptr %70, i64 %79
  call void @llvm.lifetime.end.p0(i64 4, ptr %6) #7
  call void @llvm.lifetime.end.p0(i64 12, ptr %5) #7
  ret ptr %80
}

; Function Attrs: mustprogress nounwind uwtable
define internal noundef ptr @_ZL7hashnumPK8LuaTabled(ptr noundef %0, double noundef %1) #4 {
  %3 = alloca ptr, align 8
  %4 = alloca double, align 8
  %5 = alloca [2 x i32], align 4
  %6 = alloca i32, align 4
  %7 = alloca i32, align 4
  %8 = alloca i32, align 4
  store ptr %0, ptr %3, align 8, !tbaa !9
  store double %1, ptr %4, align 8, !tbaa !74
  call void @llvm.lifetime.start.p0(i64 8, ptr %5) #7
  %9 = getelementptr inbounds [2 x i32], ptr %5, i64 0, i64 0
  call void @llvm.memcpy.p0.p0.i64(ptr align 4 %9, ptr align 8 %4, i64 8, i1 false)
  call void @llvm.lifetime.start.p0(i64 4, ptr %6) #7
  %10 = getelementptr inbounds [2 x i32], ptr %5, i64 0, i64 0
  %11 = load i32, ptr %10, align 4, !tbaa !13
  store i32 %11, ptr %6, align 4, !tbaa !13
  call void @llvm.lifetime.start.p0(i64 4, ptr %7) #7
  %12 = getelementptr inbounds [2 x i32], ptr %5, i64 0, i64 1
  %13 = load i32, ptr %12, align 4, !tbaa !13
  %14 = and i32 %13, 2147483647
  store i32 %14, ptr %7, align 4, !tbaa !13
  call void @llvm.lifetime.start.p0(i64 4, ptr %8) #7
  store i32 1540483477, ptr %8, align 4, !tbaa !13
  %15 = load i32, ptr %7, align 4, !tbaa !13
  %16 = lshr i32 %15, 18
  %17 = load i32, ptr %6, align 4, !tbaa !13
  %18 = xor i32 %17, %16
  store i32 %18, ptr %6, align 4, !tbaa !13
  %19 = load i32, ptr %6, align 4, !tbaa !13
  %20 = mul i32 %19, 1540483477
  store i32 %20, ptr %6, align 4, !tbaa !13
  %21 = load i32, ptr %6, align 4, !tbaa !13
  %22 = lshr i32 %21, 22
  %23 = load i32, ptr %7, align 4, !tbaa !13
  %24 = xor i32 %23, %22
  store i32 %24, ptr %7, align 4, !tbaa !13
  %25 = load i32, ptr %7, align 4, !tbaa !13
  %26 = mul i32 %25, 1540483477
  store i32 %26, ptr %7, align 4, !tbaa !13
  %27 = load i32, ptr %7, align 4, !tbaa !13
  %28 = lshr i32 %27, 17
  %29 = load i32, ptr %6, align 4, !tbaa !13
  %30 = xor i32 %29, %28
  store i32 %30, ptr %6, align 4, !tbaa !13
  %31 = load i32, ptr %6, align 4, !tbaa !13
  %32 = mul i32 %31, 1540483477
  store i32 %32, ptr %6, align 4, !tbaa !13
  %33 = load i32, ptr %6, align 4, !tbaa !13
  %34 = lshr i32 %33, 19
  %35 = load i32, ptr %7, align 4, !tbaa !13
  %36 = xor i32 %35, %34
  store i32 %36, ptr %7, align 4, !tbaa !13
  %37 = load i32, ptr %7, align 4, !tbaa !13
  %38 = mul i32 %37, 1540483477
  store i32 %38, ptr %7, align 4, !tbaa !13
  %39 = load ptr, ptr %3, align 8, !tbaa !9
  %40 = getelementptr inbounds nuw %struct.LuaTable, ptr %39, i32 0, i32 12
  %41 = load ptr, ptr %40, align 8, !tbaa !27
  %42 = load i32, ptr %7, align 4, !tbaa !13
  %43 = load ptr, ptr %3, align 8, !tbaa !9
  %44 = getelementptr inbounds nuw %struct.LuaTable, ptr %43, i32 0, i32 6
  %45 = load i8, ptr %44, align 2, !tbaa !26
  %46 = zext i8 %45 to i32
  %47 = shl i32 1, %46
  %48 = sub nsw i32 %47, 1
  %49 = and i32 %42, %48
  %50 = sext i32 %49 to i64
  %51 = getelementptr inbounds %struct.LuaNode, ptr %41, i64 %50
  call void @llvm.lifetime.end.p0(i64 4, ptr %8) #7
  call void @llvm.lifetime.end.p0(i64 4, ptr %7) #7
  call void @llvm.lifetime.end.p0(i64 4, ptr %6) #7
  call void @llvm.lifetime.end.p0(i64 8, ptr %5) #7
  ret ptr %51
}

; Function Attrs: mustprogress uwtable
define internal noundef ptr @_ZL12mainpositionPK8LuaTablePK10lua_TValue(ptr noundef %0, ptr noundef %1) #0 {
  %3 = alloca ptr, align 8
  %4 = alloca ptr, align 8
  %5 = alloca ptr, align 8
  store ptr %0, ptr %4, align 8, !tbaa !9
  store ptr %1, ptr %5, align 8, !tbaa !11
  %6 = load ptr, ptr %5, align 8, !tbaa !11
  %7 = getelementptr inbounds nuw %struct.lua_TValue, ptr %6, i32 0, i32 2
  %8 = load i32, ptr %7, align 4, !tbaa !20
  switch i32 %8, label %61 [
    i32 3, label %9
    i32 4, label %15
    i32 5, label %21
    i32 1, label %39
    i32 2, label %55
  ]

9:                                                ; preds = %2
  %10 = load ptr, ptr %4, align 8, !tbaa !9
  %11 = load ptr, ptr %5, align 8, !tbaa !11
  %12 = getelementptr inbounds nuw %struct.lua_TValue, ptr %11, i32 0, i32 0
  %13 = load double, ptr %12, align 8, !tbaa !22
  %14 = call noundef ptr @_ZL7hashnumPK8LuaTabled(ptr noundef %10, double noundef %13)
  store ptr %14, ptr %3, align 8
  br label %67

15:                                               ; preds = %2
  %16 = load ptr, ptr %4, align 8, !tbaa !9
  %17 = load ptr, ptr %5, align 8, !tbaa !11
  %18 = getelementptr inbounds nuw %struct.lua_TValue, ptr %17, i32 0, i32 0
  %19 = getelementptr inbounds [2 x float], ptr %18, i64 0, i64 0
  %20 = call noundef ptr @_ZL7hashvecPK8LuaTablePKf(ptr noundef %16, ptr noundef %19)
  store ptr %20, ptr %3, align 8
  br label %67

21:                                               ; preds = %2
  %22 = load ptr, ptr %4, align 8, !tbaa !9
  %23 = getelementptr inbounds nuw %struct.LuaTable, ptr %22, i32 0, i32 12
  %24 = load ptr, ptr %23, align 8, !tbaa !27
  %25 = load ptr, ptr %5, align 8, !tbaa !11
  %26 = getelementptr inbounds nuw %struct.lua_TValue, ptr %25, i32 0, i32 0
  %27 = load ptr, ptr %26, align 8, !tbaa !22
  %28 = getelementptr inbounds nuw %struct.TString, ptr %27, i32 0, i32 5
  %29 = load i32, ptr %28, align 8, !tbaa !77
  %30 = load ptr, ptr %4, align 8, !tbaa !9
  %31 = getelementptr inbounds nuw %struct.LuaTable, ptr %30, i32 0, i32 6
  %32 = load i8, ptr %31, align 2, !tbaa !26
  %33 = zext i8 %32 to i32
  %34 = shl i32 1, %33
  %35 = sub nsw i32 %34, 1
  %36 = and i32 %29, %35
  %37 = sext i32 %36 to i64
  %38 = getelementptr inbounds %struct.LuaNode, ptr %24, i64 %37
  store ptr %38, ptr %3, align 8
  br label %67

39:                                               ; preds = %2
  %40 = load ptr, ptr %4, align 8, !tbaa !9
  %41 = getelementptr inbounds nuw %struct.LuaTable, ptr %40, i32 0, i32 12
  %42 = load ptr, ptr %41, align 8, !tbaa !27
  %43 = load ptr, ptr %5, align 8, !tbaa !11
  %44 = getelementptr inbounds nuw %struct.lua_TValue, ptr %43, i32 0, i32 0
  %45 = load i32, ptr %44, align 8, !tbaa !22
  %46 = load ptr, ptr %4, align 8, !tbaa !9
  %47 = getelementptr inbounds nuw %struct.LuaTable, ptr %46, i32 0, i32 6
  %48 = load i8, ptr %47, align 2, !tbaa !26
  %49 = zext i8 %48 to i32
  %50 = shl i32 1, %49
  %51 = sub nsw i32 %50, 1
  %52 = and i32 %45, %51
  %53 = sext i32 %52 to i64
  %54 = getelementptr inbounds %struct.LuaNode, ptr %42, i64 %53
  store ptr %54, ptr %3, align 8
  br label %67

55:                                               ; preds = %2
  %56 = load ptr, ptr %4, align 8, !tbaa !9
  %57 = load ptr, ptr %5, align 8, !tbaa !11
  %58 = getelementptr inbounds nuw %struct.lua_TValue, ptr %57, i32 0, i32 0
  %59 = load ptr, ptr %58, align 8, !tbaa !22
  %60 = call noundef ptr @_ZL11hashpointerPK8LuaTablePKv(ptr noundef %56, ptr noundef %59)
  store ptr %60, ptr %3, align 8
  br label %67

61:                                               ; preds = %2
  %62 = load ptr, ptr %4, align 8, !tbaa !9
  %63 = load ptr, ptr %5, align 8, !tbaa !11
  %64 = getelementptr inbounds nuw %struct.lua_TValue, ptr %63, i32 0, i32 0
  %65 = load ptr, ptr %64, align 8, !tbaa !22
  %66 = call noundef ptr @_ZL11hashpointerPK8LuaTablePKv(ptr noundef %62, ptr noundef %65)
  store ptr %66, ptr %3, align 8
  br label %67

67:                                               ; preds = %61, %55, %39, %21, %15, %9
  %68 = load ptr, ptr %3, align 8
  ret ptr %68
}