; Function Attrs: mustprogress nofree norecurse nosync nounwind willreturn memory(read, inaccessiblemem: none) uwtable
define internal fastcc noundef ptr @_ZL12mainpositionPK8LuaTablePK10lua_TValue(ptr noundef readonly captures(none) %0, ptr noundef readonly captures(none) %1) unnamed_addr #3 {
  %3 = getelementptr inbounds nuw i8, ptr %1, i64 12
  %4 = load i32, ptr %3, align 4, !tbaa !4
  switch i32 %4, label %56 [
    i32 3, label %5
    i32 4, label %20
    i32 5, label %38
    i32 1, label %42
    i32 2, label %44
  ]

5:                                                ; preds = %2
  %6 = load i64, ptr %1, align 8, !tbaa !16
  %.0.extract.trunc.i = trunc i64 %6 to i32
  %.4.extract.shift.i = lshr i64 %6, 32
  %.4.extract.trunc.i = trunc nuw i64 %.4.extract.shift.i to i32
  %7 = and i32 %.4.extract.trunc.i, 2147483647
  %8 = lshr i32 %7, 18
  %9 = xor i32 %8, %.0.extract.trunc.i
  %10 = mul i32 %9, 1540483477
  %11 = lshr i32 %10, 22
  %12 = xor i32 %11, %7
  %13 = mul i32 %12, 1540483477
  %14 = lshr i32 %13, 17
  %15 = xor i32 %14, %10
  %16 = mul i32 %15, 1540483477
  %17 = lshr i32 %16, 19
  %18 = xor i32 %17, %13
  %19 = mul i32 %18, 1540483477
  br label %68

20:                                               ; preds = %2
  %.sroa.0.0.copyload.i = load i32, ptr %1, align 4
  %.sroa.10.0..sroa_idx.i = getelementptr inbounds nuw i8, ptr %1, i64 4
  %.sroa.10.0.copyload.i = load i32, ptr %.sroa.10.0..sroa_idx.i, align 4
  %.sroa.17.0..sroa_idx.i = getelementptr inbounds nuw i8, ptr %1, i64 8
  %.sroa.17.0.copyload.i = load i32, ptr %.sroa.17.0..sroa_idx.i, align 4
  %21 = icmp eq i32 %.sroa.0.0.copyload.i, -2147483648
  %22 = select i1 %21, i32 0, i32 %.sroa.0.0.copyload.i
  %23 = icmp eq i32 %.sroa.10.0.copyload.i, -2147483648
  %24 = select i1 %23, i32 0, i32 %.sroa.10.0.copyload.i
  %25 = icmp eq i32 %.sroa.17.0.copyload.i, -2147483648
  %26 = select i1 %25, i32 0, i32 %.sroa.17.0.copyload.i
  %27 = lshr i32 %22, 17
  %28 = xor i32 %27, %22
  %29 = lshr i32 %24, 17
  %30 = xor i32 %29, %24
  %31 = lshr i32 %26, 17
  %32 = xor i32 %31, %26
  %33 = mul i32 %28, 73856093
  %34 = mul i32 %30, 19349663
  %35 = xor i32 %34, %33
  %36 = mul i32 %32, 83492791
  %37 = xor i32 %35, %36
  br label %68

38:                                               ; preds = %2
  %39 = load ptr, ptr %1, align 8, !tbaa !16
  %40 = getelementptr inbounds nuw i8, ptr %39, i64 16
  %41 = load i32, ptr %40, align 8, !tbaa !64
  br label %68

42:                                               ; preds = %2
  %43 = load i32, ptr %1, align 8, !tbaa !16
  br label %68

44:                                               ; preds = %2
  %45 = load ptr, ptr %1, align 8, !tbaa !16
  %46 = ptrtoint ptr %45 to i64
  %47 = trunc i64 %46 to i32
  %48 = lshr i32 %47, 16
  %49 = xor i32 %48, %47
  %50 = mul i32 %49, -2048144789
  %51 = lshr i32 %50, 13
  %52 = xor i32 %51, %50
  %53 = mul i32 %52, -1028477387
  %54 = lshr i32 %53, 16
  %55 = xor i32 %54, %53
  br label %68

56:                                               ; preds = %2
  %57 = load ptr, ptr %1, align 8, !tbaa !16
  %58 = ptrtoint ptr %57 to i64
  %59 = trunc i64 %58 to i32
  %60 = lshr i32 %59, 16
  %61 = xor i32 %60, %59
  %62 = mul i32 %61, -2048144789
  %63 = lshr i32 %62, 13
  %64 = xor i32 %63, %62
  %65 = mul i32 %64, -1028477387
  %66 = lshr i32 %65, 16
  %67 = xor i32 %66, %65
  br label %68

68:                                               ; preds = %56, %44, %42, %38, %20, %5
  %.sink = phi i32 [ %67, %56 ], [ %55, %44 ], [ %43, %42 ], [ %41, %38 ], [ %37, %20 ], [ %19, %5 ]
  %.val23.sink.in = getelementptr i8, ptr %0, i64 32
  %.val23.sink = load ptr, ptr %.val23.sink.in, align 8, !tbaa !17
  %.val22.sink.in = getelementptr i8, ptr %0, i64 6
  %.val22.sink = load i8, ptr %.val22.sink.in, align 2, !tbaa !22
  %69 = zext nneg i8 %.val22.sink to i32
  %notmask.i26 = shl nsw i32 -1, %69
  %70 = xor i32 %notmask.i26, -1
  %71 = and i32 %.sink, %70
  %72 = zext nneg i32 %71 to i64
  %73 = getelementptr inbounds nuw %struct.LuaNode, ptr %.val23.sink, i64 %72
  ret ptr %73
}